target datalayout = "e-m:e-p270:32:32-p271:32:32-p272:64:64-i64:64-i128:128-f80:128-n8:16:32:64-S128"
target triple = "x86_64-pc-linux-gnu"

@.str.4 = private unnamed_addr constant [2 x i8] c"\0A\00", align 1
@.str.5 = private unnamed_addr constant [38 x i8] c"    assertpmux [options] [selection]\0A\00", align 1
@.str.6 = private unnamed_addr constant [77 x i8] c"This command adds asserts to the design that assert that all parallel muxes\0A\00", align 1
@.str.7 = private unnamed_addr constant [73 x i8] c"($pmux cells) have a maximum of one of their inputs enable at any time.\0A\00", align 1
@.str.8 = private unnamed_addr constant [13 x i8] c"    -noinit\0A\00", align 1
@.str.9 = private unnamed_addr constant [65 x i8] c"        do not enforce the pmux condition during the init state\0A\00", align 1
@.str.10 = private unnamed_addr constant [13 x i8] c"    -always\0A\00", align 1
@.str.11 = private unnamed_addr constant [75 x i8] c"        usually the $pmux condition is only checked when the $pmux output\0A\00", align 1
@.str.12 = private unnamed_addr constant [77 x i8] c"        is used by the mux tree it drives. this option will deactivate this\0A\00", align 1
@.str.13 = private unnamed_addr constant [69 x i8] c"        additional constraint and check the $pmux condition always.\0A\00", align 1

; Function Attrs: mustprogress uwtable
define internal void @_ZN12_GLOBAL__N_114AssertpmuxPass4helpEv(ptr noundef nonnull align 8 dereferenceable(104) %0) unnamed_addr #4 align 2 {
  %2 = alloca ptr, align 8
  store ptr %0, ptr %2, align 8, !tbaa !6
  call void (ptr, ...) @_ZN5Yosys3logEPKcz(ptr noundef @.str.4)
  call void (ptr, ...) @_ZN5Yosys3logEPKcz(ptr noundef @.str.5)
  call void (ptr, ...) @_ZN5Yosys3logEPKcz(ptr noundef @.str.4)
  call void (ptr, ...) @_ZN5Yosys3logEPKcz(ptr noundef @.str.6)
  call void (ptr, ...) @_ZN5Yosys3logEPKcz(ptr noundef @.str.7)
  call void (ptr, ...) @_ZN5Yosys3logEPKcz(ptr noundef @.str.4)
  call void (ptr, ...) @_ZN5Yosys3logEPKcz(ptr noundef @.str.8)
  call void (ptr, ...) @_ZN5Yosys3logEPKcz(ptr noundef @.str.9)
  call void (ptr, ...) @_ZN5Yosys3logEPKcz(ptr noundef @.str.4)
  call void (ptr, ...) @_ZN5Yosys3logEPKcz(ptr noundef @.str.10)
  call void (ptr, ...) @_ZN5Yosys3logEPKcz(ptr noundef @.str.11)
  call void (ptr, ...) @_ZN5Yosys3logEPKcz(ptr noundef @.str.12)
  call void (ptr, ...) @_ZN5Yosys3logEPKcz(ptr noundef @.str.13)
  call void (ptr, ...) @_ZN5Yosys3logEPKcz(ptr noundef @.str.4)
  ret void
}